target datalayout = "e-m:e-p270:32:32-p271:32:32-p272:64:64-i64:64-i128:128-f80:128-n8:16:32:64-S128"
target triple = "x86_64-pc-linux-gnu"

%"class.icu_77::ConstChar16Ptr" = type { ptr }

@.str.23 = private unnamed_addr constant [10 x i16] [i16 115, i16 105, i16 103, i16 110, i16 45, i16 97, i16 117, i16 116, i16 111, i16 0], align 2
@.str.24 = private unnamed_addr constant [12 x i16] [i16 115, i16 105, i16 103, i16 110, i16 45, i16 97, i16 108, i16 119, i16 97, i16 121, i16 115, i16 0], align 2
@.str.25 = private unnamed_addr constant [11 x i16] [i16 115, i16 105, i16 103, i16 110, i16 45, i16 110, i16 101, i16 118, i16 101, i16 114, i16 0], align 2
@.str.26 = private unnamed_addr constant [16 x i16] [i16 115, i16 105, i16 103, i16 110, i16 45, i16 97, i16 99, i16 99, i16 111, i16 117, i16 110, i16 116, i16 105, i16 110, i16 103, i16 0], align 2
@.str.27 = private unnamed_addr constant [23 x i16] [i16 115, i16 105, i16 103, i16 110, i16 45, i16 97, i16 99, i16 99, i16 111, i16 117, i16 110, i16 116, i16 105, i16 110, i16 103, i16 45, i16 97, i16 108, i16 119, i16 97, i16 121, i16 115, i16 0], align 2
@.str.28 = private unnamed_addr constant [17 x i16] [i16 115, i16 105, i16 103, i16 110, i16 45, i16 101, i16 120, i16 99, i16 101, i16 112, i16 116, i16 45, i16 122, i16 101, i16 114, i16 111, i16 0], align 2
@.str.30 = private unnamed_addr constant [14 x i16] [i16 115, i16 105, i16 103, i16 110, i16 45, i16 110, i16 101, i16 103, i16 97, i16 116, i16 105, i16 118, i16 101, i16 0], align 2
@.str.31 = private unnamed_addr constant [25 x i16] [i16 115, i16 105, i16 103, i16 110, i16 45, i16 97, i16 99, i16 99, i16 111, i16 117, i16 110, i16 116, i16 105, i16 110, i16 103, i16 45, i16 110, i16 101, i16 103, i16 97, i16 116, i16 105, i16 118, i16 101, i16 0], align 2

; Function Attrs: inlinehint mustprogress nounwind uwtable
define linkonce_odr noundef ptr @_ZNK6icu_7714ConstChar16Ptr3getEv(ptr noundef nonnull align 8 dereferenceable(8) %0) #2 comdat align 2 {
  %2 = alloca ptr, align 8
  store ptr %0, ptr %2, align 8, !tbaa !29
  %3 = load ptr, ptr %2, align 8
  %4 = getelementptr inbounds nuw %"class.icu_77::ConstChar16Ptr", ptr %3, i32 0, i32 0
  %5 = load ptr, ptr %4, align 8, !tbaa !33
  ret ptr %5
}

; Function Attrs: inlinehint mustprogress uwtable
define linkonce_odr noundef ptr @_ZNK6icu_7714ConstChar16PtrcvPKDsEv(ptr noundef nonnull align 8 dereferenceable(8) %0) #3 comdat align 2 {
  %2 = alloca ptr, align 8
  store ptr %0, ptr %2, align 8, !tbaa !29
  %3 = load ptr, ptr %2, align 8
  %4 = call noundef ptr @_ZNK6icu_7714ConstChar16Ptr3getEv(ptr noundef nonnull align 8 dereferenceable(8) %3)
  ret ptr %4
}

; Function Attrs: inlinehint mustprogress nounwind uwtable
define linkonce_odr void @_ZN6icu_7714ConstChar16PtrD2Ev(ptr noundef nonnull align 8 dereferenceable(8) %0) unnamed_addr #2 comdat align 2 {
  %2 = alloca ptr, align 8
  store ptr %0, ptr %2, align 8, !tbaa !29
  %3 = load ptr, ptr %2, align 8
  %4 = getelementptr inbounds nuw %"class.icu_77::ConstChar16Ptr", ptr %3, i32 0, i32 0
  %5 = load ptr, ptr %4, align 8, !tbaa !33
  call void asm sideeffect "", "rm,~{memory},~{dirflag},~{fpsr},~{flags}"(ptr %5) #14, !srcloc !35
  ret void
}

; Function Attrs: inlinehint mustprogress uwtable
define linkonce_odr noundef nonnull align 8 dereferenceable(64) ptr @_ZN6icu_7713UnicodeString6appendENS_14ConstChar16PtrEi(ptr noundef nonnull align 8 dereferenceable(64) %0, ptr noundef %1, i32 noundef %2) #3 comdat align 2 {
  %4 = alloca ptr, align 8
  %5 = alloca ptr, align 8
  %6 = alloca i32, align 4
  store ptr %0, ptr %4, align 8, !tbaa !27
  store ptr %1, ptr %5, align 8, !tbaa !29
  store i32 %2, ptr %6, align 4, !tbaa !14
  %7 = load ptr, ptr %4, align 8
  %8 = call noundef ptr @_ZNK6icu_7714ConstChar16PtrcvPKDsEv(ptr noundef nonnull align 8 dereferenceable(8) %1)
  %9 = load i32, ptr %6, align 4, !tbaa !14
  %10 = call noundef nonnull align 8 dereferenceable(64) ptr @_ZN6icu_7713UnicodeString8doAppendEPKDsii(ptr noundef nonnull align 8 dereferenceable(64) %7, ptr noundef %8, i32 noundef 0, i32 noundef %9)
  ret ptr %10
}

; Function Attrs: inlinehint mustprogress nounwind uwtable
define linkonce_odr void @_ZN6icu_7714ConstChar16PtrC2EPKDs(ptr noundef nonnull align 8 dereferenceable(8) %0, ptr noundef %1) unnamed_addr #2 comdat align 2 {
  %3 = alloca ptr, align 8
  %4 = alloca ptr, align 8
  store ptr %0, ptr %3, align 8, !tbaa !29
  store ptr %1, ptr %4, align 8, !tbaa !31
  %5 = load ptr, ptr %3, align 8
  %6 = getelementptr inbounds nuw %"class.icu_77::ConstChar16Ptr", ptr %5, i32 0, i32 0
  %7 = load ptr, ptr %4, align 8, !tbaa !31
  store ptr %7, ptr %6, align 8, !tbaa !33
  ret void
}

; Function Attrs: mustprogress uwtable
define void @_ZN6icu_776number4impl19enum_to_stem_string11signDisplayE18UNumberSignDisplayRNS_13UnicodeStringE(i32 noundef %0, ptr noundef nonnull align 8 dereferenceable(64) %1) #1 personality ptr @__gxx_personality_v0 {
  %3 = alloca i32, align 4
  %4 = alloca ptr, align 8
  %5 = alloca %"class.icu_77::ConstChar16Ptr", align 8
  %6 = alloca ptr, align 8
  %7 = alloca i32, align 4
  %8 = alloca %"class.icu_77::ConstChar16Ptr", align 8
  %9 = alloca %"class.icu_77::ConstChar16Ptr", align 8
  %10 = alloca %"class.icu_77::ConstChar16Ptr", align 8
  %11 = alloca %"class.icu_77::ConstChar16Ptr", align 8
  %12 = alloca %"class.icu_77::ConstChar16Ptr", align 8
  %13 = alloca %"class.icu_77::ConstChar16Ptr", align 8
  %14 = alloca %"class.icu_77::ConstChar16Ptr", align 8
  %15 = alloca %"class.icu_77::ConstChar16Ptr", align 8
  store i32 %0, ptr %3, align 4, !tbaa !40
  store ptr %1, ptr %4, align 8, !tbaa !27
  %16 = load i32, ptr %3, align 4, !tbaa !40
  switch i32 %16, label %89 [
    i32 0, label %17
    i32 1, label %25
    i32 2, label %33
    i32 3, label %41
    i32 4, label %49
    i32 5, label %57
    i32 6, label %65
    i32 7, label %73
    i32 8, label %81
  ]

17:                                               ; preds = %2
  %18 = load ptr, ptr %4, align 8, !tbaa !27
  call void @_ZN6icu_7714ConstChar16PtrC2EPKDs(ptr noundef nonnull align 8 dereferenceable(8) %5, ptr noundef @.str.23)
  %19 = invoke noundef nonnull align 8 dereferenceable(64) ptr @_ZN6icu_7713UnicodeString6appendENS_14ConstChar16PtrEi(ptr noundef nonnull align 8 dereferenceable(64) %18, ptr noundef %5, i32 noundef -1)
          to label %20 unwind label %21

20:                                               ; preds = %17
  call void @_ZN6icu_7714ConstChar16PtrD2Ev(ptr noundef nonnull align 8 dereferenceable(8) %5) #14
  br label %90

21:                                               ; preds = %17
  %22 = landingpad { ptr, i32 }
          cleanup
  %23 = extractvalue { ptr, i32 } %22, 0
  store ptr %23, ptr %6, align 8
  %24 = extractvalue { ptr, i32 } %22, 1
  store i32 %24, ptr %7, align 4
  call void @_ZN6icu_7714ConstChar16PtrD2Ev(ptr noundef nonnull align 8 dereferenceable(8) %5) #14
  br label %91

25:                                               ; preds = %2
  %26 = load ptr, ptr %4, align 8, !tbaa !27
  call void @_ZN6icu_7714ConstChar16PtrC2EPKDs(ptr noundef nonnull align 8 dereferenceable(8) %8, ptr noundef @.str.24)
  %27 = invoke noundef nonnull align 8 dereferenceable(64) ptr @_ZN6icu_7713UnicodeString6appendENS_14ConstChar16PtrEi(ptr noundef nonnull align 8 dereferenceable(64) %26, ptr noundef %8, i32 noundef -1)
          to label %28 unwind label %29

28:                                               ; preds = %25
  call void @_ZN6icu_7714ConstChar16PtrD2Ev(ptr noundef nonnull align 8 dereferenceable(8) %8) #14
  br label %90

29:                                               ; preds = %25
  %30 = landingpad { ptr, i32 }
          cleanup
  %31 = extractvalue { ptr, i32 } %30, 0
  store ptr %31, ptr %6, align 8
  %32 = extractvalue { ptr, i32 } %30, 1
  store i32 %32, ptr %7, align 4
  call void @_ZN6icu_7714ConstChar16PtrD2Ev(ptr noundef nonnull align 8 dereferenceable(8) %8) #14
  br label %91

33:                                               ; preds = %2
  %34 = load ptr, ptr %4, align 8, !tbaa !27
  call void @_ZN6icu_7714ConstChar16PtrC2EPKDs(ptr noundef nonnull align 8 dereferenceable(8) %9, ptr noundef @.str.25)
  %35 = invoke noundef nonnull align 8 dereferenceable(64) ptr @_ZN6icu_7713UnicodeString6appendENS_14ConstChar16PtrEi(ptr noundef nonnull align 8 dereferenceable(64) %34, ptr noundef %9, i32 noundef -1)
          to label %36 unwind label %37

36:                                               ; preds = %33
  call void @_ZN6icu_7714ConstChar16PtrD2Ev(ptr noundef nonnull align 8 dereferenceable(8) %9) #14
  br label %90

37:                                               ; preds = %33
  %38 = landingpad { ptr, i32 }
          cleanup
  %39 = extractvalue { ptr, i32 } %38, 0
  store ptr %39, ptr %6, align 8
  %40 = extractvalue { ptr, i32 } %38, 1
  store i32 %40, ptr %7, align 4
  call void @_ZN6icu_7714ConstChar16PtrD2Ev(ptr noundef nonnull align 8 dereferenceable(8) %9) #14
  br label %91

41:                                               ; preds = %2
  %42 = load ptr, ptr %4, align 8, !tbaa !27
  call void @_ZN6icu_7714ConstChar16PtrC2EPKDs(ptr noundef nonnull align 8 dereferenceable(8) %10, ptr noundef @.str.26)
  %43 = invoke noundef nonnull align 8 dereferenceable(64) ptr @_ZN6icu_7713UnicodeString6appendENS_14ConstChar16PtrEi(ptr noundef nonnull align 8 dereferenceable(64) %42, ptr noundef %10, i32 noundef -1)
          to label %44 unwind label %45

44:                                               ; preds = %41
  call void @_ZN6icu_7714ConstChar16PtrD2Ev(ptr noundef nonnull align 8 dereferenceable(8) %10) #14
  br label %90

45:                                               ; preds = %41
  %46 = landingpad { ptr, i32 }
          cleanup
  %47 = extractvalue { ptr, i32 } %46, 0
  store ptr %47, ptr %6, align 8
  %48 = extractvalue { ptr, i32 } %46, 1
  store i32 %48, ptr %7, align 4
  call void @_ZN6icu_7714ConstChar16PtrD2Ev(ptr noundef nonnull align 8 dereferenceable(8) %10) #14
  br label %91

49:                                               ; preds = %2
  %50 = load ptr, ptr %4, align 8, !tbaa !27
  call void @_ZN6icu_7714ConstChar16PtrC2EPKDs(ptr noundef nonnull align 8 dereferenceable(8) %11, ptr noundef @.str.27)
  %51 = invoke noundef nonnull align 8 dereferenceable(64) ptr @_ZN6icu_7713UnicodeString6appendENS_14ConstChar16PtrEi(ptr noundef nonnull align 8 dereferenceable(64) %50, ptr noundef %11, i32 noundef -1)
          to label %52 unwind label %53

52:                                               ; preds = %49
  call void @_ZN6icu_7714ConstChar16PtrD2Ev(ptr noundef nonnull align 8 dereferenceable(8) %11) #14
  br label %90

53:                                               ; preds = %49
  %54 = landingpad { ptr, i32 }
          cleanup
  %55 = extractvalue { ptr, i32 } %54, 0
  store ptr %55, ptr %6, align 8
  %56 = extractvalue { ptr, i32 } %54, 1
  store i32 %56, ptr %7, align 4
  call void @_ZN6icu_7714ConstChar16PtrD2Ev(ptr noundef nonnull align 8 dereferenceable(8) %11) #14
  br label %91

57:                                               ; preds = %2
  %58 = load ptr, ptr %4, align 8, !tbaa !27
  call void @_ZN6icu_7714ConstChar16PtrC2EPKDs(ptr noundef nonnull align 8 dereferenceable(8) %12, ptr noundef @.str.28)
  %59 = invoke noundef nonnull align 8 dereferenceable(64) ptr @_ZN6icu_7713UnicodeString6appendENS_14ConstChar16PtrEi(ptr noundef nonnull align 8 dereferenceable(64) %58, ptr noundef %12, i32 noundef -1)
          to label %60 unwind label %61

60:                                               ; preds = %57
  call void @_ZN6icu_7714ConstChar16PtrD2Ev(ptr noundef nonnull align 8 dereferenceable(8) %12) #14
  br label %90

61:                                               ; preds = %57
  %62 = landingpad { ptr, i32 }
          cleanup
  %63 = extractvalue { ptr, i32 } %62, 0
  store ptr %63, ptr %6, align 8
  %64 = extractvalue { ptr, i32 } %62, 1
  store i32 %64, ptr %7, align 4
  call void @_ZN6icu_7714ConstChar16PtrD2Ev(ptr noundef nonnull align 8 dereferenceable(8) %12) #14
  br label %91

65:                                               ; preds = %2
  %66 = load ptr, ptr %4, align 8, !tbaa !27
  call void @_ZN6icu_7714ConstChar16PtrC2EPKDs(ptr noundef nonnull align 8 dereferenceable(8) %13, ptr noundef @.str.29)
  %67 = invoke noundef nonnull align 8 dereferenceable(64) ptr @_ZN6icu_7713UnicodeString6appendENS_14ConstChar16PtrEi(ptr noundef nonnull align 8 dereferenceable(64) %66, ptr noundef %13, i32 noundef -1)
          to label %68 unwind label %69

68:                                               ; preds = %65
  call void @_ZN6icu_7714ConstChar16PtrD2Ev(ptr noundef nonnull align 8 dereferenceable(8) %13) #14
  br label %90

69:                                               ; preds = %65
  %70 = landingpad { ptr, i32 }
          cleanup
  %71 = extractvalue { ptr, i32 } %70, 0
  store ptr %71, ptr %6, align 8
  %72 = extractvalue { ptr, i32 } %70, 1
  store i32 %72, ptr %7, align 4
  call void @_ZN6icu_7714ConstChar16PtrD2Ev(ptr noundef nonnull align 8 dereferenceable(8) %13) #14
  br label %91

73:                                               ; preds = %2
  %74 = load ptr, ptr %4, align 8, !tbaa !27
  call void @_ZN6icu_7714ConstChar16PtrC2EPKDs(ptr noundef nonnull align 8 dereferenceable(8) %14, ptr noundef @.str.30)
  %75 = invoke noundef nonnull align 8 dereferenceable(64) ptr @_ZN6icu_7713UnicodeString6appendENS_14ConstChar16PtrEi(ptr noundef nonnull align 8 dereferenceable(64) %74, ptr noundef %14, i32 noundef -1)
          to label %76 unwind label %77

76:                                               ; preds = %73
  call void @_ZN6icu_7714ConstChar16PtrD2Ev(ptr noundef nonnull align 8 dereferenceable(8) %14) #14
  br label %90

77:                                               ; preds = %73
  %78 = landingpad { ptr, i32 }
          cleanup
  %79 = extractvalue { ptr, i32 } %78, 0
  store ptr %79, ptr %6, align 8
  %80 = extractvalue { ptr, i32 } %78, 1
  store i32 %80, ptr %7, align 4
  call void @_ZN6icu_7714ConstChar16PtrD2Ev(ptr noundef nonnull align 8 dereferenceable(8) %14) #14
  br label %91

81:                                               ; preds = %2
  %82 = load ptr, ptr %4, align 8, !tbaa !27
  call void @_ZN6icu_7714ConstChar16PtrC2EPKDs(ptr noundef nonnull align 8 dereferenceable(8) %15, ptr noundef @.str.31)
  %83 = invoke noundef nonnull align 8 dereferenceable(64) ptr @_ZN6icu_7713UnicodeString6appendENS_14ConstChar16PtrEi(ptr noundef nonnull align 8 dereferenceable(64) %82, ptr noundef %15, i32 noundef -1)
          to label %84 unwind label %85

84:                                               ; preds = %81
  call void @_ZN6icu_7714ConstChar16PtrD2Ev(ptr noundef nonnull align 8 dereferenceable(8) %15) #14
  br label %90

85:                                               ; preds = %81
  %86 = landingpad { ptr, i32 }
          cleanup
  %87 = extractvalue { ptr, i32 } %86, 0
  store ptr %87, ptr %6, align 8
  %88 = extractvalue { ptr, i32 } %86, 1
  store i32 %88, ptr %7, align 4
  call void @_ZN6icu_7714ConstChar16PtrD2Ev(ptr noundef nonnull align 8 dereferenceable(8) %15) #14
  br label %91

89:                                               ; preds = %2
  call void @abort() #16
  unreachable

90:                                               ; preds = %84, %76, %68, %60, %52, %44, %36, %28, %20
  ret void

91:                                               ; preds = %85, %77, %69, %61, %53, %45, %37, %29, %21
  %92 = load ptr, ptr %6, align 8
  %93 = load i32, ptr %7, align 4
  %94 = insertvalue { ptr, i32 } poison, ptr %92, 0
  %95 = insertvalue { ptr, i32 } %94, i32 %93, 1
  resume { ptr, i32 } %95
}