; Function Attrs: mustprogress uwtable
define void @_ZN6icu_776number4impl19enum_to_stem_string11signDisplayE18UNumberSignDisplayRNS_13UnicodeStringE(i32 noundef %0, ptr noundef nonnull align 8 dereferenceable(64) %1) local_unnamed_addr #1 personality ptr @__gxx_personality_v0 {
  switch i32 %0, label %39 [
    i32 0, label %3
    i32 1, label %7
    i32 2, label %11
    i32 3, label %15
    i32 4, label %19
    i32 5, label %23
    i32 6, label %27
    i32 7, label %31
    i32 8, label %35
  ]

3:                                                ; preds = %2
  %4 = invoke noundef nonnull align 8 dereferenceable(64) ptr @_ZN6icu_7713UnicodeString8doAppendEPKDsii(ptr noundef nonnull align 8 dereferenceable(64) %1, ptr noundef nonnull @.str.23, i32 noundef 0, i32 noundef -1)
          to label %_ZN6icu_7713UnicodeString6appendENS_14ConstChar16PtrEi.exit unwind label %5

_ZN6icu_7713UnicodeString6appendENS_14ConstChar16PtrEi.exit: ; preds = %3
  tail call void asm sideeffect "", "rm,~{memory},~{dirflag},~{fpsr},~{flags}"(ptr nonnull @.str.23) #18, !srcloc !15
  br label %40

5:                                                ; preds = %3
  %6 = landingpad { ptr, i32 }
          cleanup
  tail call void asm sideeffect "", "rm,~{memory},~{dirflag},~{fpsr},~{flags}"(ptr nonnull @.str.23) #18, !srcloc !15
  br label %41

7:                                                ; preds = %2
  %8 = invoke noundef nonnull align 8 dereferenceable(64) ptr @_ZN6icu_7713UnicodeString8doAppendEPKDsii(ptr noundef nonnull align 8 dereferenceable(64) %1, ptr noundef nonnull @.str.24, i32 noundef 0, i32 noundef -1)
          to label %_ZN6icu_7713UnicodeString6appendENS_14ConstChar16PtrEi.exit13 unwind label %9

_ZN6icu_7713UnicodeString6appendENS_14ConstChar16PtrEi.exit13: ; preds = %7
  tail call void asm sideeffect "", "rm,~{memory},~{dirflag},~{fpsr},~{flags}"(ptr nonnull @.str.24) #18, !srcloc !15
  br label %40

9:                                                ; preds = %7
  %10 = landingpad { ptr, i32 }
          cleanup
  tail call void asm sideeffect "", "rm,~{memory},~{dirflag},~{fpsr},~{flags}"(ptr nonnull @.str.24) #18, !srcloc !15
  br label %41

11:                                               ; preds = %2
  %12 = invoke noundef nonnull align 8 dereferenceable(64) ptr @_ZN6icu_7713UnicodeString8doAppendEPKDsii(ptr noundef nonnull align 8 dereferenceable(64) %1, ptr noundef nonnull @.str.25, i32 noundef 0, i32 noundef -1)
          to label %_ZN6icu_7713UnicodeString6appendENS_14ConstChar16PtrEi.exit14 unwind label %13

_ZN6icu_7713UnicodeString6appendENS_14ConstChar16PtrEi.exit14: ; preds = %11
  tail call void asm sideeffect "", "rm,~{memory},~{dirflag},~{fpsr},~{flags}"(ptr nonnull @.str.25) #18, !srcloc !15
  br label %40

13:                                               ; preds = %11
  %14 = landingpad { ptr, i32 }
          cleanup
  tail call void asm sideeffect "", "rm,~{memory},~{dirflag},~{fpsr},~{flags}"(ptr nonnull @.str.25) #18, !srcloc !15
  br label %41

15:                                               ; preds = %2
  %16 = invoke noundef nonnull align 8 dereferenceable(64) ptr @_ZN6icu_7713UnicodeString8doAppendEPKDsii(ptr noundef nonnull align 8 dereferenceable(64) %1, ptr noundef nonnull @.str.26, i32 noundef 0, i32 noundef -1)
          to label %_ZN6icu_7713UnicodeString6appendENS_14ConstChar16PtrEi.exit15 unwind label %17

_ZN6icu_7713UnicodeString6appendENS_14ConstChar16PtrEi.exit15: ; preds = %15
  tail call void asm sideeffect "", "rm,~{memory},~{dirflag},~{fpsr},~{flags}"(ptr nonnull @.str.26) #18, !srcloc !15
  br label %40

17:                                               ; preds = %15
  %18 = landingpad { ptr, i32 }
          cleanup
  tail call void asm sideeffect "", "rm,~{memory},~{dirflag},~{fpsr},~{flags}"(ptr nonnull @.str.26) #18, !srcloc !15
  br label %41

19:                                               ; preds = %2
  %20 = invoke noundef nonnull align 8 dereferenceable(64) ptr @_ZN6icu_7713UnicodeString8doAppendEPKDsii(ptr noundef nonnull align 8 dereferenceable(64) %1, ptr noundef nonnull @.str.27, i32 noundef 0, i32 noundef -1)
          to label %_ZN6icu_7713UnicodeString6appendENS_14ConstChar16PtrEi.exit16 unwind label %21

_ZN6icu_7713UnicodeString6appendENS_14ConstChar16PtrEi.exit16: ; preds = %19
  tail call void asm sideeffect "", "rm,~{memory},~{dirflag},~{fpsr},~{flags}"(ptr nonnull @.str.27) #18, !srcloc !15
  br label %40

21:                                               ; preds = %19
  %22 = landingpad { ptr, i32 }
          cleanup
  tail call void asm sideeffect "", "rm,~{memory},~{dirflag},~{fpsr},~{flags}"(ptr nonnull @.str.27) #18, !srcloc !15
  br label %41

23:                                               ; preds = %2
  %24 = invoke noundef nonnull align 8 dereferenceable(64) ptr @_ZN6icu_7713UnicodeString8doAppendEPKDsii(ptr noundef nonnull align 8 dereferenceable(64) %1, ptr noundef nonnull @.str.28, i32 noundef 0, i32 noundef -1)
          to label %_ZN6icu_7713UnicodeString6appendENS_14ConstChar16PtrEi.exit17 unwind label %25

_ZN6icu_7713UnicodeString6appendENS_14ConstChar16PtrEi.exit17: ; preds = %23
  tail call void asm sideeffect "", "rm,~{memory},~{dirflag},~{fpsr},~{flags}"(ptr nonnull @.str.28) #18, !srcloc !15
  br label %40

25:                                               ; preds = %23
  %26 = landingpad { ptr, i32 }
          cleanup
  tail call void asm sideeffect "", "rm,~{memory},~{dirflag},~{fpsr},~{flags}"(ptr nonnull @.str.28) #18, !srcloc !15
  br label %41

27:                                               ; preds = %2
  %28 = invoke noundef nonnull align 8 dereferenceable(64) ptr @_ZN6icu_7713UnicodeString8doAppendEPKDsii(ptr noundef nonnull align 8 dereferenceable(64) %1, ptr noundef nonnull @.str.29, i32 noundef 0, i32 noundef -1)
          to label %_ZN6icu_7713UnicodeString6appendENS_14ConstChar16PtrEi.exit18 unwind label %29

_ZN6icu_7713UnicodeString6appendENS_14ConstChar16PtrEi.exit18: ; preds = %27
  tail call void asm sideeffect "", "rm,~{memory},~{dirflag},~{fpsr},~{flags}"(ptr nonnull @.str.29) #18, !srcloc !15
  br label %40

29:                                               ; preds = %27
  %30 = landingpad { ptr, i32 }
          cleanup
  tail call void asm sideeffect "", "rm,~{memory},~{dirflag},~{fpsr},~{flags}"(ptr nonnull @.str.29) #18, !srcloc !15
  br label %41

31:                                               ; preds = %2
  %32 = invoke noundef nonnull align 8 dereferenceable(64) ptr @_ZN6icu_7713UnicodeString8doAppendEPKDsii(ptr noundef nonnull align 8 dereferenceable(64) %1, ptr noundef nonnull @.str.30, i32 noundef 0, i32 noundef -1)
          to label %_ZN6icu_7713UnicodeString6appendENS_14ConstChar16PtrEi.exit19 unwind label %33

_ZN6icu_7713UnicodeString6appendENS_14ConstChar16PtrEi.exit19: ; preds = %31
  tail call void asm sideeffect "", "rm,~{memory},~{dirflag},~{fpsr},~{flags}"(ptr nonnull @.str.30) #18, !srcloc !15
  br label %40

33:                                               ; preds = %31
  %34 = landingpad { ptr, i32 }
          cleanup
  tail call void asm sideeffect "", "rm,~{memory},~{dirflag},~{fpsr},~{flags}"(ptr nonnull @.str.30) #18, !srcloc !15
  br label %41

35:                                               ; preds = %2
  %36 = invoke noundef nonnull align 8 dereferenceable(64) ptr @_ZN6icu_7713UnicodeString8doAppendEPKDsii(ptr noundef nonnull align 8 dereferenceable(64) %1, ptr noundef nonnull @.str.31, i32 noundef 0, i32 noundef -1)
          to label %_ZN6icu_7713UnicodeString6appendENS_14ConstChar16PtrEi.exit20 unwind label %37

_ZN6icu_7713UnicodeString6appendENS_14ConstChar16PtrEi.exit20: ; preds = %35
  tail call void asm sideeffect "", "rm,~{memory},~{dirflag},~{fpsr},~{flags}"(ptr nonnull @.str.31) #18, !srcloc !15
  br label %40

37:                                               ; preds = %35
  %38 = landingpad { ptr, i32 }
          cleanup
  tail call void asm sideeffect "", "rm,~{memory},~{dirflag},~{fpsr},~{flags}"(ptr nonnull @.str.31) #18, !srcloc !15
  br label %41

39:                                               ; preds = %2
  tail call void @abort() #20
  unreachable

40:                                               ; preds = %_ZN6icu_7713UnicodeString6appendENS_14ConstChar16PtrEi.exit20, %_ZN6icu_7713UnicodeString6appendENS_14ConstChar16PtrEi.exit19, %_ZN6icu_7713UnicodeString6appendENS_14ConstChar16PtrEi.exit18, %_ZN6icu_7713UnicodeString6appendENS_14ConstChar16PtrEi.exit17, %_ZN6icu_7713UnicodeString6appendENS_14ConstChar16PtrEi.exit16, %_ZN6icu_7713UnicodeString6appendENS_14ConstChar16PtrEi.exit15, %_ZN6icu_7713UnicodeString6appendENS_14ConstChar16PtrEi.exit14, %_ZN6icu_7713UnicodeString6appendENS_14ConstChar16PtrEi.exit13, %_ZN6icu_7713UnicodeString6appendENS_14ConstChar16PtrEi.exit
  ret void

41:                                               ; preds = %37, %33, %29, %25, %21, %17, %13, %9, %5
  %.pn = phi { ptr, i32 } [ %38, %37 ], [ %34, %33 ], [ %30, %29 ], [ %26, %25 ], [ %22, %21 ], [ %18, %17 ], [ %14, %13 ], [ %10, %9 ], [ %6, %5 ]
  resume { ptr, i32 } %.pn
}